	.file	"temp.cpp"
	.local	_ZStL8__ioinit
	.comm	_ZStL8__ioinit,1,1
	.text
	.globl	main
	.type	main, @function
main:
.LFB971:
	.cfi_startproc
	pushl	%ebp
	.cfi_def_cfa_offset 8
	.cfi_offset 5, -8
	movl	%esp, %ebp
	.cfi_def_cfa_register 5
	subl	$16, %esp
	movl	$12, -8(%ebp)
	movl	$23, -4(%ebp)
	movl	-8(%ebp), %eax
	cmpl	-4(%ebp), %eax
	jge	.L2
	cmpl	$0, -8(%ebp)
	je	.L2
	movl	$2, -8(%ebp)
.L2:
	movl	$0, %eax
	leave
	.cfi_restore 5
	.cfi_def_cfa 4, 4
	ret
	.cfi_endproc
.LFE971:
	.size	main, .-main
	.type	_Z41__static_initialization_and_destruction_0ii, @function
_Z41__static_initialization_and_destruction_0ii:
.LFB972:
	.cfi_startproc
	pushl	%ebp
	.cfi_def_cfa_offset 8
	.cfi_offset 5, -8
	movl	%esp, %ebp
	.cfi_def_cfa_register 5
	subl	$24, %esp
	cmpl	$1, 8(%ebp)
	jne	.L4
	cmpl	$65535, 12(%ebp)
	jne	.L4
	movl	$_ZStL8__ioinit, (%esp)
	call	_ZNSt8ios_base4InitC1Ev
	movl	$__dso_handle, 8(%esp)
	movl	$_ZStL8__ioinit, 4(%esp)
	movl	$_ZNSt8ios_base4InitD1Ev, (%esp)
	call	__cxa_atexit
.L4:
	leave
	.cfi_restore 5
	.cfi_def_cfa 4, 4
	ret
	.cfi_endproc
.LFE972:
	.size	_Z41__static_initialization_and_destruction_0ii, .-_Z41__static_initialization_and_destruction_0ii
	.type	_GLOBAL__sub_I_main, @function
_GLOBAL__sub_I_main:
.LFB973:
	.cfi_startproc
	pushl	%ebp
	.cfi_def_cfa_offset 8
	.cfi_offset 5, -8
	movl	%esp, %ebp
	.cfi_def_cfa_register 5
	subl	$24, %esp
	movl	$65535, 4(%esp)
	movl	$1, (%esp)
	call	_Z41__static_initialization_and_destruction_0ii
	leave
	.cfi_restore 5
	.cfi_def_cfa 4, 4
	ret
	.cfi_endproc
.LFE973:
	.size	_GLOBAL__sub_I_main, .-_GLOBAL__sub_I_main
	.section	.init_array,"aw"
	.align 4
	.long	_GLOBAL__sub_I_main
	.hidden	__dso_handle
	.ident	"GCC: (Ubuntu 4.8.2-19ubuntu1) 4.8.2"
	.section	.note.GNU-stack,"",@progbits
